target datalayout = "e-m:e-p270:32:32-p271:32:32-p272:64:64-i64:64-i128:128-f80:128-n8:16:32:64-S128"
target triple = "x86_64-pc-linux-gnu"

%struct.AVCodecContext = type { ptr, i32, i32, ptr, i32, i32, ptr, ptr, ptr, i64, i32, i32, ptr, i32, %struct.AVRational, %struct.AVRational, %struct.AVRational, i32, i32, i32, i32, i32, %struct.AVRational, i32, i32, i32, i32, i32, i32, i32, i32, i32, i32, i32, ptr, ptr, i32, float, float, float, float, float, float, float, float, float, i32, i32, i32, i32, i32, i32, i32, i32, i32, i32, i32, i32, ptr, ptr, ptr, i32, i32, i32, i32, i32, i32, i32, i32, i32, i32, %struct.AVChannelLayout, i32, i32, i32, i32, i32, i32, i32, i32, ptr, i32, i32, i32, float, float, i32, i32, i32, i32, i32, ptr, i64, i64, float, float, i32, i32, ptr, ptr, i32, i32, i32, i32, i32, ptr, ptr, ptr, ptr, i32, i32, [8 x i64], i32, i32, i32, i32, i32, i32, i32, ptr, ptr, i32, i32, i32, i32, i32, i32, i32, i32, i32, i32, ptr, ptr, i32, i32, ptr, ptr, ptr, ptr, i32, i32, i64, i32, i32, i64, ptr, i64, ptr, i32, ptr, i32 }
%struct.AVRational = type { i32, i32 }
%struct.AVChannelLayout = type { i32, i32, %union.anon.0, ptr }
%union.anon.0 = type { i64 }
%struct.HCAContext = type { ptr, [8 x i8], [16 x %struct.ChannelContext], [128 x i8], [256 x i8], i64, i16, i32, i32, i32, i8, i8, i8, i8, i8, i8, ptr, ptr, ptr, [8 x i8] }
%struct.ChannelContext = type { [128 x float], [128 x float], [128 x float], [128 x float], [128 x float], [128 x i8], [128 x i8], [8 x i8], ptr, i32, i32, [8 x i8] }

; Function Attrs: cold nounwind optsize uwtable
define internal i32 @decode_init(ptr noundef %0) #0 {
  %2 = alloca i32, align 4
  %3 = alloca ptr, align 8
  %4 = alloca ptr, align 8
  %5 = alloca float, align 4
  %6 = alloca i32, align 4
  %7 = alloca i32, align 4
  store ptr %0, ptr %3, align 8, !tbaa !4
  call void @llvm.lifetime.start.p0(i64 8, ptr %4) #12
  %8 = load ptr, ptr %3, align 8, !tbaa !4
  %9 = getelementptr inbounds nuw %struct.AVCodecContext, ptr %8, i32 0, i32 6
  %10 = load ptr, ptr %9, align 8, !tbaa !9
  store ptr %10, ptr %4, align 8, !tbaa !29
  call void @llvm.lifetime.start.p0(i64 4, ptr %5) #12
  store float 1.250000e-01, ptr %5, align 4, !tbaa !31
  call void @llvm.lifetime.start.p0(i64 4, ptr %6) #12
  %11 = load ptr, ptr %3, align 8, !tbaa !4
  %12 = getelementptr inbounds nuw %struct.AVCodecContext, ptr %11, i32 0, i32 70
  store i32 8, ptr %12, align 4, !tbaa !32
  %13 = load ptr, ptr %3, align 8, !tbaa !4
  %14 = getelementptr inbounds nuw %struct.AVCodecContext, ptr %13, i32 0, i32 71
  %15 = getelementptr inbounds nuw %struct.AVChannelLayout, ptr %14, i32 0, i32 1
  %16 = load i32, ptr %15, align 4, !tbaa !33
  %17 = icmp sle i32 %16, 0
  br i1 %17, label %25, label %18

18:                                               ; preds = %1
  %19 = load ptr, ptr %3, align 8, !tbaa !4
  %20 = getelementptr inbounds nuw %struct.AVCodecContext, ptr %19, i32 0, i32 71
  %21 = getelementptr inbounds nuw %struct.AVChannelLayout, ptr %20, i32 0, i32 1
  %22 = load i32, ptr %21, align 4, !tbaa !33
  %23 = sext i32 %22 to i64
  %24 = icmp ugt i64 %23, 16
  br i1 %24, label %25, label %26

25:                                               ; preds = %18, %1
  store i32 -22, ptr %2, align 4
  store i32 1, ptr %7, align 4
  br label %75

26:                                               ; preds = %18
  %27 = load ptr, ptr %3, align 8, !tbaa !4
  %28 = getelementptr inbounds nuw %struct.AVCodecContext, ptr %27, i32 0, i32 10
  %29 = load i32, ptr %28, align 8, !tbaa !34
  %30 = and i32 %29, 8388608
  %31 = call ptr @avpriv_float_dsp_alloc(i32 noundef %30)
  %32 = load ptr, ptr %4, align 8, !tbaa !29
  %33 = getelementptr inbounds nuw %struct.HCAContext, ptr %32, i32 0, i32 18
  store ptr %31, ptr %33, align 16, !tbaa !35
  %34 = load ptr, ptr %4, align 8, !tbaa !29
  %35 = getelementptr inbounds nuw %struct.HCAContext, ptr %34, i32 0, i32 18
  %36 = load ptr, ptr %35, align 16, !tbaa !35
  %37 = icmp ne ptr %36, null
  br i1 %37, label %39, label %38

38:                                               ; preds = %26
  store i32 -12, ptr %2, align 4
  store i32 1, ptr %7, align 4
  br label %75

39:                                               ; preds = %26
  %40 = load ptr, ptr %4, align 8, !tbaa !29
  %41 = getelementptr inbounds nuw %struct.HCAContext, ptr %40, i32 0, i32 17
  %42 = load ptr, ptr %4, align 8, !tbaa !29
  %43 = getelementptr inbounds nuw %struct.HCAContext, ptr %42, i32 0, i32 16
  %44 = call i32 @av_tx_init(ptr noundef %41, ptr noundef %43, i32 noundef 1, i32 noundef 1, i32 noundef 128, ptr noundef %5, i64 noundef 0)
  store i32 %44, ptr %6, align 4, !tbaa !40
  %45 = load i32, ptr %6, align 4, !tbaa !40
  %46 = icmp slt i32 %45, 0
  br i1 %46, label %47, label %49

47:                                               ; preds = %39
  %48 = load i32, ptr %6, align 4, !tbaa !40
  store i32 %48, ptr %2, align 4
  store i32 1, ptr %7, align 4
  br label %75

49:                                               ; preds = %39
  %50 = load ptr, ptr %3, align 8, !tbaa !4
  %51 = getelementptr inbounds nuw %struct.AVCodecContext, ptr %50, i32 0, i32 13
  %52 = load i32, ptr %51, align 8, !tbaa !41
  %53 = icmp ne i32 %52, 0
  br i1 %53, label %54, label %60

54:                                               ; preds = %49
  %55 = load ptr, ptr %3, align 8, !tbaa !4
  %56 = getelementptr inbounds nuw %struct.AVCodecContext, ptr %55, i32 0, i32 13
  %57 = load i32, ptr %56, align 8, !tbaa !41
  %58 = icmp slt i32 %57, 36
  br i1 %58, label %59, label %60

59:                                               ; preds = %54
  store i32 -1094995529, ptr %2, align 4
  store i32 1, ptr %7, align 4
  br label %75

60:                                               ; preds = %54, %49
  %61 = load ptr, ptr %3, align 8, !tbaa !4
  %62 = getelementptr inbounds nuw %struct.AVCodecContext, ptr %61, i32 0, i32 13
  %63 = load i32, ptr %62, align 8, !tbaa !41
  %64 = icmp ne i32 %63, 0
  br i1 %64, label %66, label %65

65:                                               ; preds = %60
  store i32 0, ptr %2, align 4
  store i32 1, ptr %7, align 4
  br label %75

66:                                               ; preds = %60
  %67 = load ptr, ptr %3, align 8, !tbaa !4
  %68 = load ptr, ptr %3, align 8, !tbaa !4
  %69 = getelementptr inbounds nuw %struct.AVCodecContext, ptr %68, i32 0, i32 12
  %70 = load ptr, ptr %69, align 8, !tbaa !42
  %71 = load ptr, ptr %3, align 8, !tbaa !4
  %72 = getelementptr inbounds nuw %struct.AVCodecContext, ptr %71, i32 0, i32 13
  %73 = load i32, ptr %72, align 8, !tbaa !41
  %74 = call i32 @init_hca(ptr noundef %67, ptr noundef %70, i32 noundef %73)
  store i32 %74, ptr %2, align 4
  store i32 1, ptr %7, align 4
  br label %75

75:                                               ; preds = %66, %65, %59, %47, %38, %25
  call void @llvm.lifetime.end.p0(i64 4, ptr %6) #12
  call void @llvm.lifetime.end.p0(i64 4, ptr %5) #12
  call void @llvm.lifetime.end.p0(i64 8, ptr %4) #12
  %76 = load i32, ptr %2, align 4
  ret i32 %76
}