; Function Attrs: cold nounwind optsize uwtable
define internal range(i32 -2147483648, 1) i32 @decode_init(ptr noundef captures(none) initializes((348, 352)) %0) #0 {
  %2 = alloca float, align 4
  %3 = getelementptr inbounds nuw i8, ptr %0, i64 32
  %4 = load ptr, ptr %3, align 8, !tbaa !4
  call void @llvm.lifetime.start.p0(i64 4, ptr nonnull %2) #9
  store float 1.250000e-01, ptr %2, align 4, !tbaa !27
  %5 = getelementptr inbounds nuw i8, ptr %0, i64 348
  store i32 8, ptr %5, align 4, !tbaa !28
  %6 = getelementptr inbounds nuw i8, ptr %0, i64 356
  %7 = load i32, ptr %6, align 4, !tbaa !29
  %8 = add i32 %7, -17
  %or.cond = icmp ult i32 %8, -16
  br i1 %or.cond, label %29, label %9

9:                                                ; preds = %1
  %10 = getelementptr inbounds nuw i8, ptr %0, i64 64
  %11 = load i32, ptr %10, align 8, !tbaa !30
  %12 = and i32 %11, 8388608
  %13 = tail call ptr @avpriv_float_dsp_alloc(i32 noundef %12) #9
  %14 = getelementptr inbounds nuw i8, ptr %4, i64 46016
  store ptr %13, ptr %14, align 16, !tbaa !31
  %.not = icmp eq ptr %13, null
  br i1 %.not, label %29, label %15

15:                                               ; preds = %9
  %16 = getelementptr inbounds nuw i8, ptr %4, i64 46008
  %17 = getelementptr inbounds nuw i8, ptr %4, i64 46000
  %18 = call i32 @av_tx_init(ptr noundef nonnull %16, ptr noundef nonnull %17, i32 noundef 1, i32 noundef 1, i32 noundef 128, ptr noundef nonnull %2, i64 noundef 0) #9
  %19 = icmp slt i32 %18, 0
  br i1 %19, label %29, label %20

20:                                               ; preds = %15
  %21 = getelementptr inbounds nuw i8, ptr %0, i64 80
  %22 = load i32, ptr %21, align 8, !tbaa !36
  %.not21 = icmp ne i32 %22, 0
  %23 = icmp slt i32 %22, 36
  %or.cond23 = and i1 %.not21, %23
  br i1 %or.cond23, label %29, label %24

24:                                               ; preds = %20
  %.not22 = icmp eq i32 %22, 0
  br i1 %.not22, label %29, label %25

25:                                               ; preds = %24
  %26 = getelementptr inbounds nuw i8, ptr %0, i64 72
  %27 = load ptr, ptr %26, align 8, !tbaa !37
  %28 = call fastcc i32 @init_hca(ptr noundef nonnull %0, ptr noundef %27, i32 noundef %22)
  br label %29

29:                                               ; preds = %24, %20, %15, %9, %1, %25
  %.0 = phi i32 [ %28, %25 ], [ -22, %1 ], [ -12, %9 ], [ %18, %15 ], [ -1094995529, %20 ], [ 0, %24 ]
  call void @llvm.lifetime.end.p0(i64 4, ptr nonnull %2) #9
  ret i32 %.0
}